; Function Attrs: mustprogress uwtable
define i32 @usearch_following_75(ptr noundef %strsrch, i32 noundef %position, ptr noundef %status) local_unnamed_addr #0 {
entry:
  %tobool.not = icmp eq ptr %strsrch, null
  br i1 %tobool.not, label %return, label %land.lhs.true

land.lhs.true:                                    ; preds = %entry
  %0 = load i32, ptr %status, align 4
  %cmp.i = icmp sgt i32 %0, 0
  br i1 %cmp.i, label %return, label %if.then

if.then:                                          ; preds = %land.lhs.true
  %1 = load ptr, ptr %strsrch, align 8
  %isForwardSearching = getelementptr inbounds i8, ptr %1, i64 40
  store i8 1, ptr %isForwardSearching, align 8
  %2 = load i32, ptr %status, align 4
  %cmp.i.i = icmp slt i32 %2, 1
  br i1 %cmp.i.i, label %if.then.i, label %return

if.then.i:                                        ; preds = %if.then
  %3 = load ptr, ptr %strsrch, align 8
  %textLength.i = getelementptr inbounds i8, ptr %3, i64 8
  %4 = load i32, ptr %textLength.i, align 8
  %cmp.i9.i = icmp sgt i32 %position, -1
  %cmp1.i.i = icmp sge i32 %4, %position
  %.not.i = and i1 %cmp.i9.i, %cmp1.i.i
  br i1 %.not.i, label %if.else.i, label %if.then4.i

if.then4.i:                                       ; preds = %if.then.i
  store i32 8, ptr %status, align 4
  br label %usearch_setOffset_75.exit

if.else.i:                                        ; preds = %if.then.i
  %textIter.i = getelementptr inbounds i8, ptr %strsrch, i64 3144
  %5 = load ptr, ptr %textIter.i, align 8
  tail call void @ucol_setOffset_75(ptr noundef %5, i32 noundef %position, ptr noundef nonnull %status)
  br label %usearch_setOffset_75.exit

usearch_setOffset_75.exit:                        ; preds = %if.then4.i, %if.else.i
  %6 = load ptr, ptr %strsrch, align 8
  %matchedIndex.i = getelementptr inbounds i8, ptr %6, i64 32
  store i32 -1, ptr %matchedIndex.i, align 8
  %7 = load ptr, ptr %strsrch, align 8
  %matchedLength.i = getelementptr inbounds i8, ptr %7, i64 36
  store i32 0, ptr %matchedLength.i, align 4
  %8 = load ptr, ptr %strsrch, align 8
  %reset.i = getelementptr inbounds i8, ptr %8, i64 41
  store i8 0, ptr %reset.i, align 1
  %.pre = load i32, ptr %status, align 4
  %9 = icmp sgt i32 %.pre, 0
  br i1 %9, label %return, label %if.then4

if.then4:                                         ; preds = %usearch_setOffset_75.exit
  %call5 = tail call i32 @usearch_next_75(ptr noundef nonnull %strsrch, ptr noundef nonnull %status)
  br label %return

return:                                           ; preds = %if.then, %entry, %land.lhs.true, %usearch_setOffset_75.exit, %if.then4
  %retval.0 = phi i32 [ %call5, %if.then4 ], [ -1, %usearch_setOffset_75.exit ], [ -1, %land.lhs.true ], [ -1, %entry ], [ -1, %if.then ]
  ret i32 %retval.0
}